; Function Attrs: nounwind uwtable
define noundef zeroext i1 @lv_obj_refresh_self_size(ptr noundef %0) local_unnamed_addr #0 {
  %2 = tail call ptr @lv_obj_get_style_prop(ptr noundef %0, i32 noundef 0, i8 noundef zeroext 1) #8
  %3 = ptrtoint ptr %2 to i64
  %4 = tail call ptr @lv_obj_get_style_prop(ptr noundef %0, i32 noundef 0, i8 noundef zeroext 2) #8
  %5 = ptrtoint ptr %4 to i64
  %6 = and i64 %3, 4294967295
  %7 = icmp eq i64 %6, 1073741823
  %8 = and i64 %5, 4294967295
  %9 = icmp eq i64 %8, 1073741823
  %or.cond.not = select i1 %7, i1 true, i1 %9
  br i1 %or.cond.not, label %10, label %20

10:                                               ; preds = %1
  %11 = getelementptr inbounds nuw i8, ptr %0, i64 62
  %12 = load i16, ptr %11, align 2
  %13 = or i16 %12, 1
  store i16 %13, ptr %11, align 2
  %14 = tail call ptr @lv_obj_get_screen(ptr noundef %0) #8
  %15 = getelementptr inbounds nuw i8, ptr %14, i64 62
  %16 = load i16, ptr %15, align 2
  %17 = or i16 %16, 4
  store i16 %17, ptr %15, align 2
  %18 = tail call ptr @lv_obj_get_display(ptr noundef %14) #8
  %19 = tail call i32 @lv_display_send_event(ptr noundef %18, i32 noundef 56, ptr noundef null) #8
  br label %20

20:                                               ; preds = %1, %10
  ret i1 %or.cond.not
}